; Function Attrs: inlinehint nofree nounwind uwtable
define internal fastcc noalias noundef ptr @Ndr_Read(ptr noundef %0) unnamed_addr #11 {
  %2 = tail call noalias ptr @fopen(ptr noundef %0, ptr noundef nonnull @.str.137)
  %3 = icmp eq ptr %2, null
  br i1 %3, label %4, label %6

4:                                                ; preds = %1
  %5 = tail call i32 (ptr, ...) @printf(ptr noundef nonnull dereferenceable(1) @.str.138, ptr noundef %0)
  br label %26

6:                                                ; preds = %1
  %7 = tail call i32 @fseek(ptr noundef nonnull %2, i64 noundef 0, i32 noundef 2)
  %8 = tail call i64 @ftell(ptr noundef nonnull %2)
  %9 = trunc i64 %8 to i32
  %10 = srem i32 %9, 5
  %11 = sdiv i32 %9, 5
  %.not = icmp eq i32 %10, 0
  br i1 %.not, label %12, label %26

12:                                               ; preds = %6
  tail call void @rewind(ptr noundef nonnull %2)
  %13 = tail call noalias dereferenceable_or_null(24) ptr @malloc(i64 noundef 24) #22
  %14 = getelementptr inbounds nuw i8, ptr %13, i64 4
  store i32 %11, ptr %14, align 4, !tbaa !3
  store i32 %11, ptr %13, align 8, !tbaa !15
  %15 = sext i32 %11 to i64
  %16 = tail call noalias ptr @malloc(i64 noundef %15) #22
  %17 = getelementptr inbounds nuw i8, ptr %13, i64 8
  store ptr %16, ptr %17, align 8, !tbaa !11
  %18 = shl nsw i32 %11, 2
  %19 = sext i32 %18 to i64
  %20 = shl nsw i64 %19, 2
  %21 = tail call noalias ptr @malloc(i64 noundef %20) #22
  %22 = getelementptr inbounds nuw i8, ptr %13, i64 16
  store ptr %21, ptr %22, align 8, !tbaa !12
  %23 = tail call i64 @fread(ptr noundef %21, i64 noundef 4, i64 noundef %15, ptr noundef nonnull %2)
  %24 = tail call i64 @fread(ptr noundef %16, i64 noundef 1, i64 noundef %15, ptr noundef nonnull %2)
  %25 = tail call i32 @fclose(ptr noundef nonnull %2)
  br label %26

26:                                               ; preds = %6, %12, %4
  %.0 = phi ptr [ null, %4 ], [ %13, %12 ], [ null, %6 ]
  ret ptr %.0
}